; ModuleID = '27/1594.c'
source_filename = "27/1594.c"
target datalayout = "e-m:e-p270:32:32-p271:32:32-p272:64:64-i64:64-f80:128-n8:16:32:64-S128"
target triple = "x86_64-pc-linux-gnu"

@.str = private unnamed_addr constant [3 x i8] c"%d\00", align 1
@.str.1 = private unnamed_addr constant [10 x i8] c"%lf%lf%lf\00", align 1
@.str.2 = private unnamed_addr constant [19 x i8] c"x1=%.5lf;x2=%.5lf\0A\00", align 1
@.str.3 = private unnamed_addr constant [13 x i8] c"x1=x2=%.5lf\0A\00", align 1
@.str.4 = private unnamed_addr constant [33 x i8] c"x1=%.5lf+%.5lfi;x2=%.5lf-%.5lfi\0A\00", align 1

; Function Attrs: noinline nounwind uwtable
define dso_local i32 @main(i32 %0, i8** %1) #0 {
  %3 = alloca i32, align 4
  %4 = alloca i32, align 4
  %5 = alloca i8**, align 8
  %6 = alloca i32, align 4
  %7 = alloca i32, align 4
  %8 = alloca [100 x double], align 16
  %9 = alloca [100 x double], align 16
  %10 = alloca [100 x double], align 16
  %11 = alloca [100 x double], align 16
  %12 = alloca [100 x double], align 16
  %13 = alloca double, align 8
  %14 = alloca double, align 8
  %15 = alloca double, align 8
  store i32 0, i32* %3, align 4
  store i32 %0, i32* %4, align 4
  store i8** %1, i8*** %5, align 8
  %16 = call i32 (i8*, ...) @__isoc99_scanf(i8* getelementptr inbounds ([3 x i8], [3 x i8]* @.str, i64 0, i64 0), i32* %6)
  store i32 0, i32* %7, align 4
  br label %17

17:                                               ; preds = %138, %2
  %18 = load i32, i32* %7, align 4
  %19 = load i32, i32* %6, align 4
  %20 = icmp slt i32 %18, %19
  br i1 %20, label %21, label %141

21:                                               ; preds = %17
  %22 = load i32, i32* %7, align 4
  %23 = sext i32 %22 to i64
  %24 = getelementptr inbounds [100 x double], [100 x double]* %8, i64 0, i64 %23
  %25 = load i32, i32* %7, align 4
  %26 = sext i32 %25 to i64
  %27 = getelementptr inbounds [100 x double], [100 x double]* %9, i64 0, i64 %26
  %28 = load i32, i32* %7, align 4
  %29 = sext i32 %28 to i64
  %30 = getelementptr inbounds [100 x double], [100 x double]* %10, i64 0, i64 %29
  %31 = call i32 (i8*, ...) @__isoc99_scanf(i8* getelementptr inbounds ([10 x i8], [10 x i8]* @.str.1, i64 0, i64 0), double* %24, double* %27, double* %30)
  %32 = load i32, i32* %7, align 4
  %33 = sext i32 %32 to i64
  %34 = getelementptr inbounds [100 x double], [100 x double]* %9, i64 0, i64 %33
  %35 = load double, double* %34, align 8
  %36 = fmul double -1.000000e+00, %35
  %37 = load i32, i32* %7, align 4
  %38 = sext i32 %37 to i64
  %39 = getelementptr inbounds [100 x double], [100 x double]* %8, i64 0, i64 %38
  %40 = load double, double* %39, align 8
  %41 = fmul double 2.000000e+00, %40
  %42 = fdiv double %36, %41
  store double %42, double* %13, align 8
  %43 = load i32, i32* %7, align 4
  %44 = sext i32 %43 to i64
  %45 = getelementptr inbounds [100 x double], [100 x double]* %9, i64 0, i64 %44
  %46 = load double, double* %45, align 8
  %47 = load i32, i32* %7, align 4
  %48 = sext i32 %47 to i64
  %49 = getelementptr inbounds [100 x double], [100 x double]* %9, i64 0, i64 %48
  %50 = load double, double* %49, align 8
  %51 = fmul double %46, %50
  %52 = load i32, i32* %7, align 4
  %53 = sext i32 %52 to i64
  %54 = getelementptr inbounds [100 x double], [100 x double]* %8, i64 0, i64 %53
  %55 = load double, double* %54, align 8
  %56 = fmul double 4.000000e+00, %55
  %57 = load i32, i32* %7, align 4
  %58 = sext i32 %57 to i64
  %59 = getelementptr inbounds [100 x double], [100 x double]* %10, i64 0, i64 %58
  %60 = load double, double* %59, align 8
  %61 = fmul double %56, %60
  %62 = fsub double %51, %61
  store double %62, double* %14, align 8
  %63 = load double, double* %14, align 8
  %64 = fcmp ogt double %63, 0.000000e+00
  br i1 %64, label %65, label %101

65:                                               ; preds = %21
  %66 = load double, double* %13, align 8
  %67 = load double, double* %14, align 8
  %68 = call double @sqrt(double %67) #3
  %69 = load i32, i32* %7, align 4
  %70 = sext i32 %69 to i64
  %71 = getelementptr inbounds [100 x double], [100 x double]* %8, i64 0, i64 %70
  %72 = load double, double* %71, align 8
  %73 = fmul double 2.000000e+00, %72
  %74 = fdiv double %68, %73
  %75 = fadd double %66, %74
  %76 = load i32, i32* %7, align 4
  %77 = sext i32 %76 to i64
  %78 = getelementptr inbounds [100 x double], [100 x double]* %11, i64 0, i64 %77
  store double %75, double* %78, align 8
  %79 = load double, double* %13, align 8
  %80 = load double, double* %14, align 8
  %81 = call double @sqrt(double %80) #3
  %82 = load i32, i32* %7, align 4
  %83 = sext i32 %82 to i64
  %84 = getelementptr inbounds [100 x double], [100 x double]* %8, i64 0, i64 %83
  %85 = load double, double* %84, align 8
  %86 = fmul double 2.000000e+00, %85
  %87 = fdiv double %81, %86
  %88 = fsub double %79, %87
  %89 = load i32, i32* %7, align 4
  %90 = sext i32 %89 to i64
  %91 = getelementptr inbounds [100 x double], [100 x double]* %12, i64 0, i64 %90
  store double %88, double* %91, align 8
  %92 = load i32, i32* %7, align 4
  %93 = sext i32 %92 to i64
  %94 = getelementptr inbounds [100 x double], [100 x double]* %11, i64 0, i64 %93
  %95 = load double, double* %94, align 8
  %96 = load i32, i32* %7, align 4
  %97 = sext i32 %96 to i64
  %98 = getelementptr inbounds [100 x double], [100 x double]* %12, i64 0, i64 %97
  %99 = load double, double* %98, align 8
  %100 = call i32 (i8*, ...) @printf(i8* getelementptr inbounds ([19 x i8], [19 x i8]* @.str.2, i64 0, i64 0), double %95, double %99)
  br label %101

101:                                              ; preds = %65, %21
  %102 = load double, double* %14, align 8
  %103 = fcmp oeq double %102, 0.000000e+00
  br i1 %103, label %104, label %118

104:                                              ; preds = %101
  %105 = load double, double* %13, align 8
  %106 = load i32, i32* %7, align 4
  %107 = sext i32 %106 to i64
  %108 = getelementptr inbounds [100 x double], [100 x double]* %11, i64 0, i64 %107
  store double %105, double* %108, align 8
  %109 = load double, double* %13, align 8
  %110 = load i32, i32* %7, align 4
  %111 = sext i32 %110 to i64
  %112 = getelementptr inbounds [100 x double], [100 x double]* %12, i64 0, i64 %111
  store double %109, double* %112, align 8
  %113 = load i32, i32* %7, align 4
  %114 = sext i32 %113 to i64
  %115 = getelementptr inbounds [100 x double], [100 x double]* %11, i64 0, i64 %114
  %116 = load double, double* %115, align 8
  %117 = call i32 (i8*, ...) @printf(i8* getelementptr inbounds ([13 x i8], [13 x i8]* @.str.3, i64 0, i64 0), double %116)
  br label %118

118:                                              ; preds = %104, %101
  %119 = load double, double* %14, align 8
  %120 = fcmp olt double %119, 0.000000e+00
  br i1 %120, label %121, label %137

121:                                              ; preds = %118
  %122 = load double, double* %14, align 8
  %123 = fmul double -1.000000e+00, %122
  store double %123, double* %14, align 8
  %124 = load double, double* %14, align 8
  %125 = call double @sqrt(double %124) #3
  %126 = load i32, i32* %7, align 4
  %127 = sext i32 %126 to i64
  %128 = getelementptr inbounds [100 x double], [100 x double]* %8, i64 0, i64 %127
  %129 = load double, double* %128, align 8
  %130 = fmul double 2.000000e+00, %129
  %131 = fdiv double %125, %130
  store double %131, double* %15, align 8
  %132 = load double, double* %13, align 8
  %133 = load double, double* %15, align 8
  %134 = load double, double* %13, align 8
  %135 = load double, double* %15, align 8
  %136 = call i32 (i8*, ...) @printf(i8* getelementptr inbounds ([33 x i8], [33 x i8]* @.str.4, i64 0, i64 0), double %132, double %133, double %134, double %135)
  br label %137

137:                                              ; preds = %121, %118
  br label %138

138:                                              ; preds = %137
  %139 = load i32, i32* %7, align 4
  %140 = add nsw i32 %139, 1
  store i32 %140, i32* %7, align 4
  br label %17

141:                                              ; preds = %17
  ret i32 0
}

declare dso_local i32 @__isoc99_scanf(i8*, ...) #1

; Function Attrs: nounwind
declare dso_local double @sqrt(double) #2

declare dso_local i32 @printf(i8*, ...) #1


!llvm.module.flags = !{!0}
!llvm.ident = !{!1}

!0 = !{i32 1, !"wchar_size", i32 4}
!1 = !{!"clang version 10.0.0-4ubuntu1 "}
